target datalayout = "e-m:e-p270:32:32-p271:32:32-p272:64:64-i64:64-i128:128-f80:128-n8:16:32:64-S128"
target triple = "x86_64-unknown-linux-gnu"

@_ZZN4absl18container_internal12_GLOBAL__N_110RandomSeedEvE7counter = internal thread_local global i64 0, align 8

; Function Attrs: mustprogress nounwind uwtable
define linkonce_odr dso_local noundef i64 @_ZN4absl18container_internal12PerTableSaltEPKNS0_6ctrl_tE(ptr noundef %ctrl) #1 comdat {
entry:
  %ctrl.addr = alloca ptr, align 8
  store ptr %ctrl, ptr %ctrl.addr, align 8
  %0 = load ptr, ptr %ctrl.addr, align 8
  %1 = ptrtoint ptr %0 to i64
  %shr = lshr i64 %1, 12
  ret i64 %shr
}

; Function Attrs: mustprogress nounwind uwtable
define internal noundef i64 @_ZN4absl18container_internal12_GLOBAL__N_110RandomSeedEv() #1 {
entry:
  %value = alloca i64, align 8
  %0 = call align 8 ptr @llvm.threadlocal.address.p0(ptr align 8 @_ZZN4absl18container_internal12_GLOBAL__N_110RandomSeedEvE7counter)
  %1 = load i64, ptr %0, align 8
  %inc = add i64 %1, 1
  store i64 %inc, ptr %0, align 8
  store i64 %inc, ptr %value, align 8
  %2 = load i64, ptr %value, align 8
  %3 = call align 8 ptr @llvm.threadlocal.address.p0(ptr align 8 @_ZZN4absl18container_internal12_GLOBAL__N_110RandomSeedEvE7counter)
  %4 = ptrtoint ptr %3 to i64
  %xor = xor i64 %2, %4
  ret i64 %xor
}

; Function Attrs: mustprogress uwtable
define linkonce_odr dso_local noundef i64 @_ZN4absl18container_internal2H1EmPKNS0_6ctrl_tE(i64 noundef %hash, ptr noundef %ctrl) #0 comdat {
entry:
  %hash.addr = alloca i64, align 8
  %ctrl.addr = alloca ptr, align 8
  store i64 %hash, ptr %hash.addr, align 8
  store ptr %ctrl, ptr %ctrl.addr, align 8
  %0 = load i64, ptr %hash.addr, align 8
  %shr = lshr i64 %0, 7
  %1 = load ptr, ptr %ctrl.addr, align 8
  %call = call noundef i64 @_ZN4absl18container_internal12PerTableSaltEPKNS0_6ctrl_tE(ptr noundef %1)
  %xor = xor i64 %shr, %call
  ret i64 %xor
}

; Function Attrs: mustprogress uwtable
define dso_local noundef zeroext i1 @_ZN4absl18container_internal21ShouldInsertBackwardsEmPKNS0_6ctrl_tE(i64 noundef %hash, ptr noundef %ctrl) #0 {
entry:
  %hash.addr = alloca i64, align 8
  %ctrl.addr = alloca ptr, align 8
  store i64 %hash, ptr %hash.addr, align 8
  store ptr %ctrl, ptr %ctrl.addr, align 8
  %0 = load i64, ptr %hash.addr, align 8
  %1 = load ptr, ptr %ctrl.addr, align 8
  %call = call noundef i64 @_ZN4absl18container_internal2H1EmPKNS0_6ctrl_tE(i64 noundef %0, ptr noundef %1)
  %call1 = call noundef i64 @_ZN4absl18container_internal12_GLOBAL__N_110RandomSeedEv()
  %xor = xor i64 %call, %call1
  %rem = urem i64 %xor, 13
  %cmp = icmp ugt i64 %rem, 6
  ret i1 %cmp
}