; Function Attrs: mustprogress nofree norecurse nosync nounwind willreturn memory(readwrite, argmem: none, inaccessiblemem: none) uwtable
define dso_local noundef zeroext i1 @_ZN4absl18container_internal21ShouldInsertBackwardsEmPKNS0_6ctrl_tE(i64 noundef %hash, ptr noundef %ctrl) local_unnamed_addr #3 {
entry:
  %shr.i = lshr i64 %hash, 7
  %0 = ptrtoint ptr %ctrl to i64
  %shr.i.i = lshr i64 %0, 12
  %1 = tail call align 8 ptr @llvm.threadlocal.address.p0(ptr align 8 @_ZZN4absl18container_internal12_GLOBAL__N_110RandomSeedEvE7counter)
  %2 = load i64, ptr %1, align 8
  %inc.i = add i64 %2, 1
  store i64 %inc.i, ptr %1, align 8
  %3 = ptrtoint ptr %1 to i64
  %xor.i1 = xor i64 %shr.i, %3
  %xor.i = xor i64 %xor.i1, %shr.i.i
  %xor = xor i64 %xor.i, %inc.i
  %rem = urem i64 %xor, 13
  %cmp = icmp samesign ugt i64 %rem, 6
  ret i1 %cmp
}